target datalayout = "e-m:e-p270:32:32-p271:32:32-p272:64:64-i64:64-i128:128-f80:128-n8:16:32:64-S128"
target triple = "x86_64-pc-linux-gnu"

%"class.YAML::Stream" = type { ptr, %"struct.YAML::Mark", i32, i8, %"class.std::deque", ptr, i64, i64 }
%"struct.YAML::Mark" = type { i32, i32, i32 }
%"class.std::deque" = type { %"class.std::_Deque_base" }
%"class.std::_Deque_base" = type { %"struct.std::_Deque_base<char, std::allocator<char>>::_Deque_impl" }
%"struct.std::_Deque_base<char, std::allocator<char>>::_Deque_impl" = type { %"struct.std::_Deque_base<char, std::allocator<char>>::_Deque_impl_data" }
%"struct.std::_Deque_base<char, std::allocator<char>>::_Deque_impl_data" = type { ptr, i64, %"struct.std::_Deque_iterator", %"struct.std::_Deque_iterator" }
%"struct.std::_Deque_iterator" = type { ptr, ptr, ptr, ptr }

; Function Attrs: inlinehint mustprogress nounwind uwtable
define linkonce_odr noundef i64 @_ZSt16__deque_buf_sizem(i64 noundef %0) #6 comdat {
  %2 = alloca i64, align 8
  store i64 %0, ptr %2, align 8, !tbaa !54
  %3 = load i64, ptr %2, align 8, !tbaa !54
  %4 = icmp ult i64 %3, 512
  br i1 %4, label %5, label %8

5:                                                ; preds = %1
  %6 = load i64, ptr %2, align 8, !tbaa !54
  %7 = udiv i64 512, %6
  br label %9

8:                                                ; preds = %1
  br label %9

9:                                                ; preds = %8, %5
  %10 = phi i64 [ %7, %5 ], [ 1, %8 ]
  ret i64 %10
}

; Function Attrs: mustprogress nounwind uwtable
define linkonce_odr void @_ZNSt15_Deque_iteratorIcRcPcE11_M_set_nodeEPS1_(ptr noundef nonnull align 8 dereferenceable(32) %0, ptr noundef %1) #1 comdat align 2 {
  %3 = alloca ptr, align 8
  %4 = alloca ptr, align 8
  store ptr %0, ptr %3, align 8, !tbaa !100
  store ptr %1, ptr %4, align 8, !tbaa !92
  %5 = load ptr, ptr %3, align 8
  %6 = load ptr, ptr %4, align 8, !tbaa !92
  %7 = getelementptr inbounds nuw %"struct.std::_Deque_iterator", ptr %5, i32 0, i32 3
  store ptr %6, ptr %7, align 8, !tbaa !105
  %8 = load ptr, ptr %4, align 8, !tbaa !92
  %9 = load ptr, ptr %8, align 8, !tbaa !68
  %10 = getelementptr inbounds nuw %"struct.std::_Deque_iterator", ptr %5, i32 0, i32 1
  store ptr %9, ptr %10, align 8, !tbaa !103
  %11 = getelementptr inbounds nuw %"struct.std::_Deque_iterator", ptr %5, i32 0, i32 1
  %12 = load ptr, ptr %11, align 8, !tbaa !103
  %13 = call noundef i64 @_ZNSt15_Deque_iteratorIcRcPcE14_S_buffer_sizeEv() #15
  %14 = getelementptr inbounds i8, ptr %12, i64 %13
  %15 = getelementptr inbounds nuw %"struct.std::_Deque_iterator", ptr %5, i32 0, i32 2
  store ptr %14, ptr %15, align 8, !tbaa !104
  ret void
}

; Function Attrs: mustprogress nounwind uwtable
define linkonce_odr noundef i64 @_ZNSt15_Deque_iteratorIcRcPcE14_S_buffer_sizeEv() #1 comdat align 2 {
  %1 = call noundef i64 @_ZSt16__deque_buf_sizem(i64 noundef 1)
  ret i64 %1
}

; Function Attrs: mustprogress nounwind uwtable
define linkonce_odr noundef nonnull align 8 dereferenceable(32) ptr @_ZNSt15_Deque_iteratorIcRcPcEpLEl(ptr noundef nonnull align 8 dereferenceable(32) %0, i64 noundef %1) #1 comdat align 2 {
  %3 = alloca ptr, align 8
  %4 = alloca i64, align 8
  %5 = alloca i64, align 8
  %6 = alloca i64, align 8
  store ptr %0, ptr %3, align 8, !tbaa !100
  store i64 %1, ptr %4, align 8, !tbaa !54
  %7 = load ptr, ptr %3, align 8
  call void @llvm.lifetime.start.p0(i64 8, ptr %5) #15
  %8 = load i64, ptr %4, align 8, !tbaa !54
  %9 = getelementptr inbounds nuw %"struct.std::_Deque_iterator", ptr %7, i32 0, i32 0
  %10 = load ptr, ptr %9, align 8, !tbaa !102
  %11 = getelementptr inbounds nuw %"struct.std::_Deque_iterator", ptr %7, i32 0, i32 1
  %12 = load ptr, ptr %11, align 8, !tbaa !103
  %13 = ptrtoint ptr %10 to i64
  %14 = ptrtoint ptr %12 to i64
  %15 = sub i64 %13, %14
  %16 = add nsw i64 %8, %15
  store i64 %16, ptr %5, align 8, !tbaa !54
  %17 = load i64, ptr %5, align 8, !tbaa !54
  %18 = icmp sge i64 %17, 0
  br i1 %18, label %19, label %28

19:                                               ; preds = %2
  %20 = load i64, ptr %5, align 8, !tbaa !54
  %21 = call noundef i64 @_ZNSt15_Deque_iteratorIcRcPcE14_S_buffer_sizeEv() #15
  %22 = icmp slt i64 %20, %21
  br i1 %22, label %23, label %28

23:                                               ; preds = %19
  %24 = load i64, ptr %4, align 8, !tbaa !54
  %25 = getelementptr inbounds nuw %"struct.std::_Deque_iterator", ptr %7, i32 0, i32 0
  %26 = load ptr, ptr %25, align 8, !tbaa !102
  %27 = getelementptr inbounds i8, ptr %26, i64 %24
  store ptr %27, ptr %25, align 8, !tbaa !102
  br label %58

28:                                               ; preds = %19, %2
  call void @llvm.lifetime.start.p0(i64 8, ptr %6) #15
  %29 = load i64, ptr %5, align 8, !tbaa !54
  %30 = icmp sgt i64 %29, 0
  br i1 %30, label %31, label %35

31:                                               ; preds = %28
  %32 = load i64, ptr %5, align 8, !tbaa !54
  %33 = call noundef i64 @_ZNSt15_Deque_iteratorIcRcPcE14_S_buffer_sizeEv() #15
  %34 = sdiv i64 %32, %33
  br label %43

35:                                               ; preds = %28
  %36 = load i64, ptr %5, align 8, !tbaa !54
  %37 = sub nsw i64 0, %36
  %38 = sub nsw i64 %37, 1
  %39 = call noundef i64 @_ZNSt15_Deque_iteratorIcRcPcE14_S_buffer_sizeEv() #15
  %40 = udiv i64 %38, %39
  %41 = sub nsw i64 0, %40
  %42 = sub nsw i64 %41, 1
  br label %43

43:                                               ; preds = %35, %31
  %44 = phi i64 [ %34, %31 ], [ %42, %35 ]
  store i64 %44, ptr %6, align 8, !tbaa !54
  %45 = getelementptr inbounds nuw %"struct.std::_Deque_iterator", ptr %7, i32 0, i32 3
  %46 = load ptr, ptr %45, align 8, !tbaa !105
  %47 = load i64, ptr %6, align 8, !tbaa !54
  %48 = getelementptr inbounds ptr, ptr %46, i64 %47
  call void @_ZNSt15_Deque_iteratorIcRcPcE11_M_set_nodeEPS1_(ptr noundef nonnull align 8 dereferenceable(32) %7, ptr noundef %48) #15
  %49 = getelementptr inbounds nuw %"struct.std::_Deque_iterator", ptr %7, i32 0, i32 1
  %50 = load ptr, ptr %49, align 8, !tbaa !103
  %51 = load i64, ptr %5, align 8, !tbaa !54
  %52 = load i64, ptr %6, align 8, !tbaa !54
  %53 = call noundef i64 @_ZNSt15_Deque_iteratorIcRcPcE14_S_buffer_sizeEv() #15
  %54 = mul nsw i64 %52, %53
  %55 = sub nsw i64 %51, %54
  %56 = getelementptr inbounds i8, ptr %50, i64 %55
  %57 = getelementptr inbounds nuw %"struct.std::_Deque_iterator", ptr %7, i32 0, i32 0
  store ptr %56, ptr %57, align 8, !tbaa !102
  call void @llvm.lifetime.end.p0(i64 8, ptr %6) #15
  br label %58

58:                                               ; preds = %43, %23
  call void @llvm.lifetime.end.p0(i64 8, ptr %5) #15
  ret ptr %7
}

; Function Attrs: mustprogress nounwind uwtable
define linkonce_odr void @_ZNSt15_Deque_iteratorIcRcPcEC2ERKS2_(ptr noundef nonnull align 8 dereferenceable(32) %0, ptr noundef nonnull align 8 dereferenceable(32) %1) unnamed_addr #1 comdat align 2 {
  %3 = alloca ptr, align 8
  %4 = alloca ptr, align 8
  store ptr %0, ptr %3, align 8, !tbaa !100
  store ptr %1, ptr %4, align 8, !tbaa !100
  %5 = load ptr, ptr %3, align 8
  %6 = getelementptr inbounds nuw %"struct.std::_Deque_iterator", ptr %5, i32 0, i32 0
  %7 = load ptr, ptr %4, align 8, !tbaa !100
  %8 = getelementptr inbounds nuw %"struct.std::_Deque_iterator", ptr %7, i32 0, i32 0
  %9 = load ptr, ptr %8, align 8, !tbaa !102
  store ptr %9, ptr %6, align 8, !tbaa !102
  %10 = getelementptr inbounds nuw %"struct.std::_Deque_iterator", ptr %5, i32 0, i32 1
  %11 = load ptr, ptr %4, align 8, !tbaa !100
  %12 = getelementptr inbounds nuw %"struct.std::_Deque_iterator", ptr %11, i32 0, i32 1
  %13 = load ptr, ptr %12, align 8, !tbaa !103
  store ptr %13, ptr %10, align 8, !tbaa !103
  %14 = getelementptr inbounds nuw %"struct.std::_Deque_iterator", ptr %5, i32 0, i32 2
  %15 = load ptr, ptr %4, align 8, !tbaa !100
  %16 = getelementptr inbounds nuw %"struct.std::_Deque_iterator", ptr %15, i32 0, i32 2
  %17 = load ptr, ptr %16, align 8, !tbaa !104
  store ptr %17, ptr %14, align 8, !tbaa !104
  %18 = getelementptr inbounds nuw %"struct.std::_Deque_iterator", ptr %5, i32 0, i32 3
  %19 = load ptr, ptr %4, align 8, !tbaa !100
  %20 = getelementptr inbounds nuw %"struct.std::_Deque_iterator", ptr %19, i32 0, i32 3
  %21 = load ptr, ptr %20, align 8, !tbaa !105
  store ptr %21, ptr %18, align 8, !tbaa !105
  ret void
}

; Function Attrs: mustprogress nounwind uwtable
define linkonce_odr noundef nonnull align 1 dereferenceable(1) ptr @_ZNKSt15_Deque_iteratorIcRcPcEdeEv(ptr noundef nonnull align 8 dereferenceable(32) %0) #1 comdat align 2 {
  %2 = alloca ptr, align 8
  store ptr %0, ptr %2, align 8, !tbaa !100
  %3 = load ptr, ptr %2, align 8
  %4 = getelementptr inbounds nuw %"struct.std::_Deque_iterator", ptr %3, i32 0, i32 0
  %5 = load ptr, ptr %4, align 8, !tbaa !102
  ret ptr %5
}

; Function Attrs: mustprogress nounwind uwtable
define linkonce_odr void @_ZStplRKSt15_Deque_iteratorIcRcPcEl(ptr dead_on_unwind noalias writable sret(%"struct.std::_Deque_iterator") align 8 %0, ptr noundef nonnull align 8 dereferenceable(32) %1, i64 noundef %2) #1 comdat {
  %4 = alloca ptr, align 8
  %5 = alloca ptr, align 8
  %6 = alloca i64, align 8
  store ptr %0, ptr %4, align 8
  store ptr %1, ptr %5, align 8, !tbaa !100
  store i64 %2, ptr %6, align 8, !tbaa !54
  %7 = load ptr, ptr %5, align 8, !tbaa !100
  call void @_ZNSt15_Deque_iteratorIcRcPcEC2ERKS2_(ptr noundef nonnull align 8 dereferenceable(32) %0, ptr noundef nonnull align 8 dereferenceable(32) %7) #15
  %8 = load i64, ptr %6, align 8, !tbaa !54
  %9 = call noundef nonnull align 8 dereferenceable(32) ptr @_ZNSt15_Deque_iteratorIcRcPcEpLEl(ptr noundef nonnull align 8 dereferenceable(32) %0, i64 noundef %8) #15
  ret void
}

; Function Attrs: mustprogress nounwind uwtable
define linkonce_odr noundef nonnull align 1 dereferenceable(1) ptr @_ZNKSt15_Deque_iteratorIcRcPcEixEl(ptr noundef nonnull align 8 dereferenceable(32) %0, i64 noundef %1) #1 comdat align 2 {
  %3 = alloca ptr, align 8
  %4 = alloca i64, align 8
  %5 = alloca %"struct.std::_Deque_iterator", align 8
  store ptr %0, ptr %3, align 8, !tbaa !100
  store i64 %1, ptr %4, align 8, !tbaa !54
  %6 = load ptr, ptr %3, align 8
  call void @llvm.lifetime.start.p0(i64 32, ptr %5) #15
  %7 = load i64, ptr %4, align 8, !tbaa !54
  call void @_ZStplRKSt15_Deque_iteratorIcRcPcEl(ptr dead_on_unwind writable sret(%"struct.std::_Deque_iterator") align 8 %5, ptr noundef nonnull align 8 dereferenceable(32) %6, i64 noundef %7) #15
  %8 = call noundef nonnull align 1 dereferenceable(1) ptr @_ZNKSt15_Deque_iteratorIcRcPcEdeEv(ptr noundef nonnull align 8 dereferenceable(32) %5) #15
  call void @llvm.lifetime.end.p0(i64 32, ptr %5) #15
  ret ptr %8
}

; Function Attrs: mustprogress nounwind uwtable
define linkonce_odr noundef zeroext i1 @_ZSteqRKSt15_Deque_iteratorIcRcPcES4_(ptr noundef nonnull align 8 dereferenceable(32) %0, ptr noundef nonnull align 8 dereferenceable(32) %1) #1 comdat {
  %3 = alloca ptr, align 8
  %4 = alloca ptr, align 8
  store ptr %0, ptr %3, align 8, !tbaa !100
  store ptr %1, ptr %4, align 8, !tbaa !100
  %5 = load ptr, ptr %3, align 8, !tbaa !100
  %6 = getelementptr inbounds nuw %"struct.std::_Deque_iterator", ptr %5, i32 0, i32 0
  %7 = load ptr, ptr %6, align 8, !tbaa !102
  %8 = load ptr, ptr %4, align 8, !tbaa !100
  %9 = getelementptr inbounds nuw %"struct.std::_Deque_iterator", ptr %8, i32 0, i32 0
  %10 = load ptr, ptr %9, align 8, !tbaa !102
  %11 = icmp eq ptr %7, %10
  ret i1 %11
}

; Function Attrs: mustprogress nounwind uwtable
define linkonce_odr noundef nonnull align 1 dereferenceable(1) ptr @_ZNSt5dequeIcSaIcEEixEm(ptr noundef nonnull align 8 dereferenceable(80) %0, i64 noundef %1) #1 comdat align 2 {
  %3 = alloca ptr, align 8
  %4 = alloca i64, align 8
  store ptr %0, ptr %3, align 8, !tbaa !48
  store i64 %1, ptr %4, align 8, !tbaa !54
  %5 = load ptr, ptr %3, align 8
  %6 = getelementptr inbounds nuw %"class.std::_Deque_base", ptr %5, i32 0, i32 0
  %7 = getelementptr inbounds nuw %"struct.std::_Deque_base<char, std::allocator<char>>::_Deque_impl_data", ptr %6, i32 0, i32 2
  %8 = load i64, ptr %4, align 8, !tbaa !54
  %9 = call noundef nonnull align 1 dereferenceable(1) ptr @_ZNKSt15_Deque_iteratorIcRcPcEixEl(ptr noundef nonnull align 8 dereferenceable(32) %7, i64 noundef %8) #15
  ret ptr %9
}

; Function Attrs: mustprogress nounwind uwtable
define linkonce_odr noundef signext i8 @_ZN4YAML6Stream3eofEv() #1 comdat align 2 {
  ret i8 4
}

; Function Attrs: mustprogress nounwind uwtable
define linkonce_odr noundef zeroext i1 @_ZNKSt5dequeIcSaIcEE5emptyEv(ptr noundef nonnull align 8 dereferenceable(80) %0) #1 comdat align 2 {
  %2 = alloca ptr, align 8
  store ptr %0, ptr %2, align 8, !tbaa !48
  %3 = load ptr, ptr %2, align 8
  %4 = getelementptr inbounds nuw %"class.std::_Deque_base", ptr %3, i32 0, i32 0
  %5 = getelementptr inbounds nuw %"struct.std::_Deque_base<char, std::allocator<char>>::_Deque_impl_data", ptr %4, i32 0, i32 3
  %6 = getelementptr inbounds nuw %"class.std::_Deque_base", ptr %3, i32 0, i32 0
  %7 = getelementptr inbounds nuw %"struct.std::_Deque_base<char, std::allocator<char>>::_Deque_impl_data", ptr %6, i32 0, i32 2
  %8 = call noundef zeroext i1 @_ZSteqRKSt15_Deque_iteratorIcRcPcES4_(ptr noundef nonnull align 8 dereferenceable(32) %5, ptr noundef nonnull align 8 dereferenceable(32) %7) #15
  ret i1 %8
}

; Function Attrs: mustprogress uwtable
define noundef signext i8 @_ZNK4YAML6Stream4peekEv(ptr noundef nonnull align 8 dereferenceable(136) %0) #0 align 2 {
  %2 = alloca i8, align 1
  %3 = alloca ptr, align 8
  store ptr %0, ptr %3, align 8, !tbaa !3
  %4 = load ptr, ptr %3, align 8
  %5 = getelementptr inbounds nuw %"class.YAML::Stream", ptr %4, i32 0, i32 4
  %6 = call noundef zeroext i1 @_ZNKSt5dequeIcSaIcEE5emptyEv(ptr noundef nonnull align 8 dereferenceable(80) %5) #15
  br i1 %6, label %7, label %9

7:                                                ; preds = %1
  %8 = call noundef signext i8 @_ZN4YAML6Stream3eofEv()
  store i8 %8, ptr %2, align 1
  br label %13

9:                                                ; preds = %1
  %10 = getelementptr inbounds nuw %"class.YAML::Stream", ptr %4, i32 0, i32 4
  %11 = call noundef nonnull align 1 dereferenceable(1) ptr @_ZNSt5dequeIcSaIcEEixEm(ptr noundef nonnull align 8 dereferenceable(80) %10, i64 noundef 0) #15
  %12 = load i8, ptr %11, align 1, !tbaa !39
  store i8 %12, ptr %2, align 1
  br label %13

13:                                               ; preds = %9, %7
  %14 = load i8, ptr %2, align 1
  ret i8 %14
}