; Function Attrs: mustprogress nofree norecurse nosync nounwind willreturn memory(read, inaccessiblemem: none) uwtable
define noundef signext i8 @_ZNK4YAML6Stream4peekEv(ptr noundef nonnull readonly align 8 captures(none) dereferenceable(136) %0) local_unnamed_addr #7 align 2 {
  %2 = getelementptr inbounds nuw i8, ptr %0, i64 80
  %3 = getelementptr inbounds nuw i8, ptr %0, i64 48
  %4 = load ptr, ptr %2, align 8, !tbaa !46
  %5 = load ptr, ptr %3, align 8, !tbaa !46
  %6 = icmp eq ptr %4, %5
  br i1 %6, label %30, label %7

7:                                                ; preds = %1
  %8 = getelementptr inbounds nuw i8, ptr %0, i64 56
  %9 = load ptr, ptr %8, align 8, !tbaa !47, !noalias !54
  %10 = getelementptr inbounds nuw i8, ptr %0, i64 72
  %11 = load ptr, ptr %10, align 8, !tbaa !45, !noalias !54
  %12 = ptrtoint ptr %5 to i64
  %13 = ptrtoint ptr %9 to i64
  %14 = sub i64 %12, %13
  %15 = icmp sgt i64 %14, -1
  br i1 %15, label %16, label %20

16:                                               ; preds = %7
  %17 = icmp samesign ult i64 %14, 512
  br i1 %17, label %_ZNSt5dequeIcSaIcEEixEm.exit, label %18

18:                                               ; preds = %16
  %19 = lshr i64 %14, 9
  br label %22

20:                                               ; preds = %7
  %21 = ashr i64 %14, 9
  br label %22

22:                                               ; preds = %20, %18
  %23 = phi i64 [ %19, %18 ], [ %21, %20 ]
  %24 = getelementptr inbounds ptr, ptr %11, i64 %23
  %25 = load ptr, ptr %24, align 8, !tbaa !52, !noalias !54
  %26 = shl nsw i64 %23, 9
  %27 = sub nsw i64 %14, %26
  %28 = getelementptr inbounds i8, ptr %25, i64 %27
  br label %_ZNSt5dequeIcSaIcEEixEm.exit

_ZNSt5dequeIcSaIcEEixEm.exit:                     ; preds = %16, %22
  %storemerge.i.i.i.i = phi ptr [ %28, %22 ], [ %5, %16 ]
  %29 = load i8, ptr %storemerge.i.i.i.i, align 1, !tbaa !36
  br label %30

30:                                               ; preds = %1, %_ZNSt5dequeIcSaIcEEixEm.exit
  %.0 = phi i8 [ %29, %_ZNSt5dequeIcSaIcEEixEm.exit ], [ 4, %1 ]
  ret i8 %.0
}